target datalayout = "e-m:e-p270:32:32-p271:32:32-p272:64:64-i64:64-i128:128-f80:128-n8:16:32:64-S128"
target triple = "x86_64-pc-linux-gnu"

%struct.DecodedFrames = type { ptr, i64, i64 }
%struct.AVCodecContext = type { ptr, i32, i32, ptr, i32, i32, ptr, ptr, ptr, i64, i32, i32, ptr, i32, %struct.AVRational, %struct.AVRational, %struct.AVRational, i32, i32, i32, i32, i32, %struct.AVRational, i32, i32, i32, i32, i32, i32, i32, i32, i32, i32, i32, ptr, ptr, i32, float, float, float, float, float, float, float, float, float, i32, i32, i32, i32, i32, i32, i32, i32, i32, i32, i32, i32, ptr, ptr, ptr, i32, i32, i32, i32, i32, i32, i32, i32, i32, i32, %struct.AVChannelLayout, i32, i32, i32, i32, i32, i32, i32, i32, ptr, i32, i32, i32, float, float, i32, i32, i32, i32, i32, ptr, i64, i64, float, float, i32, i32, ptr, ptr, i32, i32, i32, i32, i32, ptr, ptr, ptr, ptr, i32, i32, [8 x i64], i32, i32, i32, i32, i32, i32, i32, ptr, ptr, i32, i32, i32, i32, i32, i32, i32, i32, i32, i32, ptr, ptr, i32, i32, ptr, ptr, ptr, ptr, i32, i32, i64, i32, i32, i64, ptr, i64, ptr, i32, ptr, i32 }
%struct.AVRational = type { i32, i32 }
%struct.AVChannelLayout = type { i32, i32, %union.anon, ptr }
%union.anon = type { i64 }
%struct.AVCodecInternal = type { i32, i32, i32, ptr, ptr, ptr, ptr, ptr, ptr, ptr, i32, ptr, ptr, ptr, i32, i32, ptr, i32, ptr, ptr, i32, i32 }
%struct.FrameThreadContext = type { ptr, ptr, i32, %union.pthread_mutex_t, %union.pthread_mutex_t, %union.pthread_mutex_t, %union.pthread_cond_t, i32, %struct.DecodedFrames, i32, ptr, i32, i32, ptr, ptr, ptr }
%union.pthread_mutex_t = type { %struct.__pthread_mutex_s }
%struct.__pthread_mutex_s = type { i32, i32, i32, i32, i32, i16, i16, %struct.__pthread_internal_list }
%struct.__pthread_internal_list = type { ptr, ptr }
%union.pthread_cond_t = type { %struct.__pthread_cond_s }
%struct.__pthread_cond_s = type { %union.__atomic_wide_counter, %union.__atomic_wide_counter, [2 x i32], [2 x i32], i32, i32, [2 x i32] }
%union.__atomic_wide_counter = type { i64 }
%struct.PerThreadContext = type { ptr, i64, i32, i32, %union.pthread_cond_t, %union.pthread_cond_t, %union.pthread_cond_t, %union.pthread_mutex_t, %union.pthread_mutex_t, ptr, ptr, %struct.DecodedFrames, i32, i32, i32, i32, i32, i32, i32, i32, i32 }
%struct.AVCodec = type { ptr, ptr, i32, i32, i32, i8, ptr, ptr, ptr, ptr, ptr, ptr, ptr, ptr }
%struct.FFCodec = type { %struct.AVCodec, i32, i32, ptr, ptr, ptr, ptr, %union.anon.0, ptr, ptr, ptr, ptr, ptr, ptr }
%union.anon.0 = type { ptr }

@.str.2 = private unnamed_addr constant [30 x i8] c"Assertion %s failed at %s:%d\0A\00", align 1
@.str.4 = private unnamed_addr constant [27 x i8] c"libavcodec/pthread_frame.c\00", align 1
@per_thread_offsets = internal constant [8 x i32] [i32 20, i32 208, i32 168, i32 0, i32 24, i32 72, i32 120, i32 0], align 16
@thread_ctx_offsets = internal constant [7 x i32] [i32 16, i32 24, i32 64, i32 104, i32 0, i32 144, i32 0], align 16
@.str.6 = private unnamed_addr constant [16 x i8] c"!avctx->hwaccel\00", align 1

; Function Attrs: alwaysinline nounwind uwtable
define internal ptr @ffcodec(ptr noundef %0) #8 {
  %2 = alloca ptr, align 8
  store ptr %0, ptr %2, align 8, !tbaa !68
  %3 = load ptr, ptr %2, align 8, !tbaa !68
  ret ptr %3
}

; Function Attrs: cold nounwind optsize uwtable
define void @ff_frame_thread_free(ptr noundef %0, i32 noundef %1) #7 {
  %3 = alloca ptr, align 8
  %4 = alloca i32, align 4
  %5 = alloca ptr, align 8
  %6 = alloca ptr, align 8
  %7 = alloca i32, align 4
  %8 = alloca ptr, align 8
  %9 = alloca ptr, align 8
  %10 = alloca ptr, align 8
  %11 = alloca ptr, align 8
  %12 = alloca ptr, align 8
  store ptr %0, ptr %3, align 8, !tbaa !4
  store i32 %1, ptr %4, align 4, !tbaa !39
  call void @llvm.lifetime.start.p0(i64 8, ptr %5) #9
  %13 = load ptr, ptr %3, align 8, !tbaa !4
  %14 = getelementptr inbounds nuw %struct.AVCodecContext, ptr %13, i32 0, i32 7
  %15 = load ptr, ptr %14, align 8, !tbaa !11
  %16 = getelementptr inbounds nuw %struct.AVCodecInternal, ptr %15, i32 0, i32 5
  %17 = load ptr, ptr %16, align 8, !tbaa !31
  store ptr %17, ptr %5, align 8, !tbaa !37
  call void @llvm.lifetime.start.p0(i64 8, ptr %6) #9
  %18 = load ptr, ptr %3, align 8, !tbaa !4
  %19 = getelementptr inbounds nuw %struct.AVCodecContext, ptr %18, i32 0, i32 3
  %20 = load ptr, ptr %19, align 8, !tbaa !67
  %21 = call ptr @ffcodec(ptr noundef %20)
  store ptr %21, ptr %6, align 8, !tbaa !89
  call void @llvm.lifetime.start.p0(i64 4, ptr %7) #9
  %22 = load ptr, ptr %5, align 8, !tbaa !37
  %23 = load i32, ptr %4, align 4, !tbaa !39
  call void @park_frame_worker_threads(ptr noundef %22, i32 noundef %23) #11
  store i32 0, ptr %7, align 4, !tbaa !39
  br label %24

24:                                               ; preds = %128, %2
  %25 = load i32, ptr %7, align 4, !tbaa !39
  %26 = load i32, ptr %4, align 4, !tbaa !39
  %27 = icmp slt i32 %25, %26
  br i1 %27, label %28, label %131

28:                                               ; preds = %24
  call void @llvm.lifetime.start.p0(i64 8, ptr %8) #9
  %29 = load ptr, ptr %5, align 8, !tbaa !37
  %30 = getelementptr inbounds nuw %struct.FrameThreadContext, ptr %29, i32 0, i32 0
  %31 = load ptr, ptr %30, align 8, !tbaa !47
  %32 = load i32, ptr %7, align 4, !tbaa !39
  %33 = sext i32 %32 to i64
  %34 = getelementptr inbounds %struct.PerThreadContext, ptr %31, i64 %33
  store ptr %34, ptr %8, align 8, !tbaa !53
  call void @llvm.lifetime.start.p0(i64 8, ptr %9) #9
  %35 = load ptr, ptr %8, align 8, !tbaa !53
  %36 = getelementptr inbounds nuw %struct.PerThreadContext, ptr %35, i32 0, i32 9
  %37 = load ptr, ptr %36, align 8, !tbaa !56
  store ptr %37, ptr %9, align 8, !tbaa !4
  %38 = load ptr, ptr %9, align 8, !tbaa !4
  %39 = getelementptr inbounds nuw %struct.AVCodecContext, ptr %38, i32 0, i32 7
  %40 = load ptr, ptr %39, align 8, !tbaa !11
  %41 = icmp ne ptr %40, null
  br i1 %41, label %42, label %120

42:                                               ; preds = %28
  %43 = load ptr, ptr %8, align 8, !tbaa !53
  %44 = getelementptr inbounds nuw %struct.PerThreadContext, ptr %43, i32 0, i32 2
  %45 = load i32, ptr %44, align 8, !tbaa !144
  %46 = icmp eq i32 %45, 2
  br i1 %46, label %47, label %63

47:                                               ; preds = %42
  %48 = load ptr, ptr %8, align 8, !tbaa !53
  %49 = getelementptr inbounds nuw %struct.PerThreadContext, ptr %48, i32 0, i32 7
  %50 = call i32 @pthread_mutex_lock(ptr noundef %49) #9
  %51 = load ptr, ptr %8, align 8, !tbaa !53
  %52 = getelementptr inbounds nuw %struct.PerThreadContext, ptr %51, i32 0, i32 14
  store i32 1, ptr %52, align 8, !tbaa !145
  %53 = load ptr, ptr %8, align 8, !tbaa !53
  %54 = getelementptr inbounds nuw %struct.PerThreadContext, ptr %53, i32 0, i32 4
  %55 = call i32 @pthread_cond_signal(ptr noundef %54) #9
  %56 = load ptr, ptr %8, align 8, !tbaa !53
  %57 = getelementptr inbounds nuw %struct.PerThreadContext, ptr %56, i32 0, i32 7
  %58 = call i32 @pthread_mutex_unlock(ptr noundef %57) #9
  %59 = load ptr, ptr %8, align 8, !tbaa !53
  %60 = getelementptr inbounds nuw %struct.PerThreadContext, ptr %59, i32 0, i32 1
  %61 = load i64, ptr %60, align 8, !tbaa !146
  %62 = call i32 @pthread_join(i64 noundef %61, ptr noundef null)
  br label %63

63:                                               ; preds = %47, %42
  %64 = load ptr, ptr %6, align 8, !tbaa !89
  %65 = getelementptr inbounds nuw %struct.FFCodec, ptr %64, i32 0, i32 8
  %66 = load ptr, ptr %65, align 8, !tbaa !147
  %67 = icmp ne ptr %66, null
  br i1 %67, label %68, label %79

68:                                               ; preds = %63
  %69 = load ptr, ptr %8, align 8, !tbaa !53
  %70 = getelementptr inbounds nuw %struct.PerThreadContext, ptr %69, i32 0, i32 2
  %71 = load i32, ptr %70, align 8, !tbaa !144
  %72 = icmp ne i32 %71, 0
  br i1 %72, label %73, label %79

73:                                               ; preds = %68
  %74 = load ptr, ptr %6, align 8, !tbaa !89
  %75 = getelementptr inbounds nuw %struct.FFCodec, ptr %74, i32 0, i32 8
  %76 = load ptr, ptr %75, align 8, !tbaa !147
  %77 = load ptr, ptr %9, align 8, !tbaa !4
  %78 = call i32 %76(ptr noundef %77)
  br label %79

79:                                               ; preds = %73, %68, %63
  %80 = load ptr, ptr %9, align 8, !tbaa !4
  call void @ff_hwaccel_uninit(ptr noundef %80)
  %81 = load ptr, ptr %9, align 8, !tbaa !4
  %82 = getelementptr inbounds nuw %struct.AVCodecContext, ptr %81, i32 0, i32 6
  %83 = load ptr, ptr %82, align 8, !tbaa !148
  %84 = icmp ne ptr %83, null
  br i1 %84, label %85, label %98

85:                                               ; preds = %79
  %86 = load ptr, ptr %6, align 8, !tbaa !89
  %87 = getelementptr inbounds nuw %struct.FFCodec, ptr %86, i32 0, i32 0
  %88 = getelementptr inbounds nuw %struct.AVCodec, ptr %87, i32 0, i32 10
  %89 = load ptr, ptr %88, align 8, !tbaa !149
  %90 = icmp ne ptr %89, null
  br i1 %90, label %91, label %95

91:                                               ; preds = %85
  %92 = load ptr, ptr %9, align 8, !tbaa !4
  %93 = getelementptr inbounds nuw %struct.AVCodecContext, ptr %92, i32 0, i32 6
  %94 = load ptr, ptr %93, align 8, !tbaa !148
  call void @av_opt_free(ptr noundef %94)
  br label %95

95:                                               ; preds = %91, %85
  %96 = load ptr, ptr %9, align 8, !tbaa !4
  %97 = getelementptr inbounds nuw %struct.AVCodecContext, ptr %96, i32 0, i32 6
  call void @av_freep(ptr noundef %97)
  br label %98

98:                                               ; preds = %95, %79
  %99 = load ptr, ptr %9, align 8, !tbaa !4
  %100 = getelementptr inbounds nuw %struct.AVCodecContext, ptr %99, i32 0, i32 7
  %101 = load ptr, ptr %100, align 8, !tbaa !11
  %102 = getelementptr inbounds nuw %struct.AVCodecInternal, ptr %101, i32 0, i32 3
  call void @av_refstruct_unref(ptr noundef %102)
  %103 = load ptr, ptr %9, align 8, !tbaa !4
  %104 = getelementptr inbounds nuw %struct.AVCodecContext, ptr %103, i32 0, i32 7
  %105 = load ptr, ptr %104, align 8, !tbaa !11
  %106 = getelementptr inbounds nuw %struct.AVCodecInternal, ptr %105, i32 0, i32 6
  call void @av_packet_free(ptr noundef %106)
  %107 = load ptr, ptr %9, align 8, !tbaa !4
  %108 = getelementptr inbounds nuw %struct.AVCodecContext, ptr %107, i32 0, i32 7
  %109 = load ptr, ptr %108, align 8, !tbaa !11
  %110 = getelementptr inbounds nuw %struct.AVCodecInternal, ptr %109, i32 0, i32 8
  call void @av_packet_free(ptr noundef %110)
  %111 = load ptr, ptr %9, align 8, !tbaa !4
  call void @ff_decode_internal_uninit(ptr noundef %111)
  %112 = load ptr, ptr %9, align 8, !tbaa !4
  %113 = getelementptr inbounds nuw %struct.AVCodecContext, ptr %112, i32 0, i32 7
  call void @av_freep(ptr noundef %113)
  %114 = load ptr, ptr %9, align 8, !tbaa !4
  %115 = getelementptr inbounds nuw %struct.AVCodecContext, ptr %114, i32 0, i32 107
  call void @av_buffer_unref(ptr noundef %115)
  %116 = load ptr, ptr %9, align 8, !tbaa !4
  %117 = getelementptr inbounds nuw %struct.AVCodecContext, ptr %116, i32 0, i32 149
  %118 = load ptr, ptr %9, align 8, !tbaa !4
  %119 = getelementptr inbounds nuw %struct.AVCodecContext, ptr %118, i32 0, i32 150
  call void @av_frame_side_data_free(ptr noundef %117, ptr noundef %119)
  br label %120

120:                                              ; preds = %98, %28
  %121 = load ptr, ptr %8, align 8, !tbaa !53
  %122 = getelementptr inbounds nuw %struct.PerThreadContext, ptr %121, i32 0, i32 11
  call void @decoded_frames_free(ptr noundef %122)
  %123 = load ptr, ptr %8, align 8, !tbaa !53
  call void @ff_pthread_free(ptr noundef %123, ptr noundef @per_thread_offsets)
  %124 = load ptr, ptr %8, align 8, !tbaa !53
  %125 = getelementptr inbounds nuw %struct.PerThreadContext, ptr %124, i32 0, i32 10
  call void @av_packet_free(ptr noundef %125)
  %126 = load ptr, ptr %8, align 8, !tbaa !53
  %127 = getelementptr inbounds nuw %struct.PerThreadContext, ptr %126, i32 0, i32 9
  call void @av_freep(ptr noundef %127)
  call void @llvm.lifetime.end.p0(i64 8, ptr %9) #9
  call void @llvm.lifetime.end.p0(i64 8, ptr %8) #9
  br label %128

128:                                              ; preds = %120
  %129 = load i32, ptr %7, align 4, !tbaa !39
  %130 = add nsw i32 %129, 1
  store i32 %130, ptr %7, align 4, !tbaa !39
  br label %24, !llvm.loop !150

131:                                              ; preds = %24
  %132 = load ptr, ptr %5, align 8, !tbaa !37
  %133 = getelementptr inbounds nuw %struct.FrameThreadContext, ptr %132, i32 0, i32 8
  call void @decoded_frames_free(ptr noundef %133)
  %134 = load ptr, ptr %5, align 8, !tbaa !37
  %135 = getelementptr inbounds nuw %struct.FrameThreadContext, ptr %134, i32 0, i32 10
  call void @av_packet_free(ptr noundef %135)
  %136 = load ptr, ptr %5, align 8, !tbaa !37
  %137 = getelementptr inbounds nuw %struct.FrameThreadContext, ptr %136, i32 0, i32 0
  call void @av_freep(ptr noundef %137)
  %138 = load ptr, ptr %5, align 8, !tbaa !37
  call void @ff_pthread_free(ptr noundef %138, ptr noundef @thread_ctx_offsets)
  br label %139

139:                                              ; preds = %131
  %140 = load ptr, ptr %3, align 8, !tbaa !4
  %141 = getelementptr inbounds nuw %struct.AVCodecContext, ptr %140, i32 0, i32 105
  %142 = load ptr, ptr %141, align 8, !tbaa !80
  %143 = icmp ne ptr %142, null
  br i1 %143, label %144, label %145

144:                                              ; preds = %139
  call void (ptr, i32, ptr, ...) @av_log(ptr noundef null, i32 noundef 0, ptr noundef @.str.2, ptr noundef @.str.6, ptr noundef @.str.4, i32 noundef 808)
  call void @abort() #10
  unreachable

145:                                              ; preds = %139
  br label %146

146:                                              ; preds = %145
  br label %147

147:                                              ; preds = %146
  br label %148

148:                                              ; preds = %147
  call void @llvm.lifetime.start.p0(i64 8, ptr %10) #9
  %149 = load ptr, ptr %5, align 8, !tbaa !37
  %150 = getelementptr inbounds nuw %struct.FrameThreadContext, ptr %149, i32 0, i32 13
  %151 = load ptr, ptr %150, align 8, !tbaa !82
  store ptr %151, ptr %10, align 8, !tbaa !83
  %152 = load ptr, ptr %3, align 8, !tbaa !4
  %153 = getelementptr inbounds nuw %struct.AVCodecContext, ptr %152, i32 0, i32 105
  %154 = load ptr, ptr %153, align 8, !tbaa !80
  %155 = load ptr, ptr %5, align 8, !tbaa !37
  %156 = getelementptr inbounds nuw %struct.FrameThreadContext, ptr %155, i32 0, i32 13
  store ptr %154, ptr %156, align 8, !tbaa !82
  %157 = load ptr, ptr %10, align 8, !tbaa !83
  %158 = load ptr, ptr %3, align 8, !tbaa !4
  %159 = getelementptr inbounds nuw %struct.AVCodecContext, ptr %158, i32 0, i32 105
  store ptr %157, ptr %159, align 8, !tbaa !80
  call void @llvm.lifetime.end.p0(i64 8, ptr %10) #9
  br label %160

160:                                              ; preds = %148
  br label %161

161:                                              ; preds = %160
  br label %162

162:                                              ; preds = %161
  call void @llvm.lifetime.start.p0(i64 8, ptr %11) #9
  %163 = load ptr, ptr %5, align 8, !tbaa !37
  %164 = getelementptr inbounds nuw %struct.FrameThreadContext, ptr %163, i32 0, i32 14
  %165 = load ptr, ptr %164, align 8, !tbaa !84
  store ptr %165, ptr %11, align 8, !tbaa !85
  %166 = load ptr, ptr %3, align 8, !tbaa !4
  %167 = getelementptr inbounds nuw %struct.AVCodecContext, ptr %166, i32 0, i32 106
  %168 = load ptr, ptr %167, align 8, !tbaa !86
  %169 = load ptr, ptr %5, align 8, !tbaa !37
  %170 = getelementptr inbounds nuw %struct.FrameThreadContext, ptr %169, i32 0, i32 14
  store ptr %168, ptr %170, align 8, !tbaa !84
  %171 = load ptr, ptr %11, align 8, !tbaa !85
  %172 = load ptr, ptr %3, align 8, !tbaa !4
  %173 = getelementptr inbounds nuw %struct.AVCodecContext, ptr %172, i32 0, i32 106
  store ptr %171, ptr %173, align 8, !tbaa !86
  call void @llvm.lifetime.end.p0(i64 8, ptr %11) #9
  br label %174

174:                                              ; preds = %162
  br label %175

175:                                              ; preds = %174
  br label %176

176:                                              ; preds = %175
  call void @llvm.lifetime.start.p0(i64 8, ptr %12) #9
  %177 = load ptr, ptr %5, align 8, !tbaa !37
  %178 = getelementptr inbounds nuw %struct.FrameThreadContext, ptr %177, i32 0, i32 15
  %179 = load ptr, ptr %178, align 8, !tbaa !87
  store ptr %179, ptr %12, align 8, !tbaa !85
  %180 = load ptr, ptr %3, align 8, !tbaa !4
  %181 = getelementptr inbounds nuw %struct.AVCodecContext, ptr %180, i32 0, i32 7
  %182 = load ptr, ptr %181, align 8, !tbaa !11
  %183 = getelementptr inbounds nuw %struct.AVCodecInternal, ptr %182, i32 0, i32 16
  %184 = load ptr, ptr %183, align 8, !tbaa !88
  %185 = load ptr, ptr %5, align 8, !tbaa !37
  %186 = getelementptr inbounds nuw %struct.FrameThreadContext, ptr %185, i32 0, i32 15
  store ptr %184, ptr %186, align 8, !tbaa !87
  %187 = load ptr, ptr %12, align 8, !tbaa !85
  %188 = load ptr, ptr %3, align 8, !tbaa !4
  %189 = getelementptr inbounds nuw %struct.AVCodecContext, ptr %188, i32 0, i32 7
  %190 = load ptr, ptr %189, align 8, !tbaa !11
  %191 = getelementptr inbounds nuw %struct.AVCodecInternal, ptr %190, i32 0, i32 16
  store ptr %187, ptr %191, align 8, !tbaa !88
  call void @llvm.lifetime.end.p0(i64 8, ptr %12) #9
  br label %192

192:                                              ; preds = %176
  br label %193

193:                                              ; preds = %192
  %194 = load ptr, ptr %3, align 8, !tbaa !4
  %195 = getelementptr inbounds nuw %struct.AVCodecContext, ptr %194, i32 0, i32 7
  %196 = load ptr, ptr %195, align 8, !tbaa !11
  %197 = getelementptr inbounds nuw %struct.AVCodecInternal, ptr %196, i32 0, i32 5
  call void @av_freep(ptr noundef %197)
  call void @llvm.lifetime.end.p0(i64 4, ptr %7) #9
  call void @llvm.lifetime.end.p0(i64 8, ptr %6) #9
  call void @llvm.lifetime.end.p0(i64 8, ptr %5) #9
  ret void
}