; Function Attrs: cold nounwind optsize uwtable
define void @ff_frame_thread_free(ptr noundef captures(none) %0, i32 noundef %1) local_unnamed_addr #6 {
  %3 = getelementptr inbounds nuw i8, ptr %0, i64 40
  %4 = load ptr, ptr %3, align 8, !tbaa !4
  %5 = getelementptr inbounds nuw i8, ptr %4, i64 32
  %6 = load ptr, ptr %5, align 8, !tbaa !27
  %7 = getelementptr inbounds nuw i8, ptr %0, i64 16
  %8 = load ptr, ptr %7, align 8, !tbaa !50
  tail call fastcc void @park_frame_worker_threads(ptr noundef %6, i32 noundef %1) #13
  %9 = icmp sgt i32 %1, 0
  br i1 %9, label %.lr.ph, label %._crit_edge

.lr.ph:                                           ; preds = %2
  %10 = getelementptr inbounds nuw i8, ptr %8, i64 144
  %11 = getelementptr inbounds nuw i8, ptr %8, i64 64
  %wide.trip.count = zext nneg i32 %1 to i64
  br label %12

12:                                               ; preds = %.lr.ph, %56
  %indvars.iv = phi i64 [ 0, %.lr.ph ], [ %indvars.iv.next, %56 ]
  %13 = load ptr, ptr %6, align 8, !tbaa !42
  %14 = getelementptr inbounds nuw %struct.PerThreadContext, ptr %13, i64 %indvars.iv
  %15 = getelementptr inbounds nuw i8, ptr %14, i64 248
  %16 = load ptr, ptr %15, align 8, !tbaa !49
  %17 = getelementptr inbounds nuw i8, ptr %16, i64 40
  %18 = load ptr, ptr %17, align 8, !tbaa !4
  %.not61 = icmp eq ptr %18, null
  br i1 %.not61, label %56, label %19

19:                                               ; preds = %12
  %20 = getelementptr inbounds nuw i8, ptr %14, i64 16
  %21 = load i32, ptr %20, align 8, !tbaa !140
  %22 = icmp eq i32 %21, 2
  br i1 %22, label %23, label %33

23:                                               ; preds = %19
  %24 = getelementptr inbounds nuw i8, ptr %14, i64 168
  %25 = tail call i32 @pthread_mutex_lock(ptr noundef nonnull %24) #11
  %26 = getelementptr inbounds nuw i8, ptr %14, i64 296
  store i32 1, ptr %26, align 8, !tbaa !141
  %27 = getelementptr inbounds nuw i8, ptr %14, i64 24
  %28 = tail call i32 @pthread_cond_signal(ptr noundef nonnull %27) #11
  %29 = tail call i32 @pthread_mutex_unlock(ptr noundef nonnull %24) #11
  %30 = getelementptr inbounds nuw i8, ptr %14, i64 8
  %31 = load i64, ptr %30, align 8, !tbaa !142
  %32 = tail call i32 @pthread_join(i64 noundef %31, ptr noundef null) #11
  br label %33

33:                                               ; preds = %23, %19
  %34 = load ptr, ptr %10, align 8, !tbaa !143
  %.not62 = icmp eq ptr %34, null
  br i1 %.not62, label %39, label %35

35:                                               ; preds = %33
  %36 = load i32, ptr %20, align 8, !tbaa !140
  %.not63 = icmp eq i32 %36, 0
  br i1 %.not63, label %39, label %37

37:                                               ; preds = %35
  %38 = tail call i32 %34(ptr noundef nonnull %16) #11
  br label %39

39:                                               ; preds = %37, %35, %33
  tail call void @ff_hwaccel_uninit(ptr noundef nonnull %16) #11
  %40 = getelementptr inbounds nuw i8, ptr %16, i64 32
  %41 = load ptr, ptr %40, align 8, !tbaa !144
  %.not64 = icmp eq ptr %41, null
  br i1 %.not64, label %46, label %42

42:                                               ; preds = %39
  %43 = load ptr, ptr %11, align 8, !tbaa !145
  %.not65 = icmp eq ptr %43, null
  br i1 %.not65, label %45, label %44

44:                                               ; preds = %42
  tail call void @av_opt_free(ptr noundef nonnull %41) #11
  br label %45

45:                                               ; preds = %44, %42
  tail call void @av_freep(ptr noundef nonnull %40) #11
  br label %46

46:                                               ; preds = %45, %39
  %47 = load ptr, ptr %17, align 8, !tbaa !4
  %48 = getelementptr inbounds nuw i8, ptr %47, i64 16
  tail call void @av_refstruct_unref(ptr noundef nonnull %48) #11
  %49 = load ptr, ptr %17, align 8, !tbaa !4
  %50 = getelementptr inbounds nuw i8, ptr %49, i64 40
  tail call void @av_packet_free(ptr noundef nonnull %50) #11
  %51 = load ptr, ptr %17, align 8, !tbaa !4
  %52 = getelementptr inbounds nuw i8, ptr %51, i64 56
  tail call void @av_packet_free(ptr noundef nonnull %52) #11
  tail call void @ff_decode_internal_uninit(ptr noundef nonnull %16) #11
  tail call void @av_freep(ptr noundef nonnull %17) #11
  %53 = getelementptr inbounds nuw i8, ptr %16, i64 552
  tail call void @av_buffer_unref(ptr noundef nonnull %53) #11
  %54 = getelementptr inbounds nuw i8, ptr %16, i64 848
  %55 = getelementptr inbounds nuw i8, ptr %16, i64 856
  tail call void @av_frame_side_data_free(ptr noundef nonnull %54, ptr noundef nonnull %55) #11
  br label %56

56:                                               ; preds = %46, %12
  %57 = getelementptr inbounds nuw i8, ptr %14, i64 264
  tail call fastcc void @decoded_frames_free(ptr noundef nonnull %57)
  tail call void @ff_pthread_free(ptr noundef nonnull %14, ptr noundef nonnull @per_thread_offsets) #11
  %58 = getelementptr inbounds nuw i8, ptr %14, i64 256
  tail call void @av_packet_free(ptr noundef nonnull %58) #11
  tail call void @av_freep(ptr noundef nonnull %15) #11
  %indvars.iv.next = add nuw nsw i64 %indvars.iv, 1
  %exitcond.not = icmp eq i64 %indvars.iv.next, %wide.trip.count
  br i1 %exitcond.not, label %._crit_edge, label %12, !llvm.loop !146

._crit_edge:                                      ; preds = %56, %2
  %59 = getelementptr inbounds nuw i8, ptr %6, i64 200
  tail call fastcc void @decoded_frames_free(ptr noundef nonnull %59)
  %60 = getelementptr inbounds nuw i8, ptr %6, i64 232
  tail call void @av_packet_free(ptr noundef nonnull %60) #11
  tail call void @av_freep(ptr noundef %6) #11
  tail call void @ff_pthread_free(ptr noundef %6, ptr noundef nonnull @thread_ctx_offsets) #11
  %61 = getelementptr inbounds nuw i8, ptr %0, i64 536
  %62 = load ptr, ptr %61, align 8, !tbaa !76
  %.not = icmp eq ptr %62, null
  br i1 %.not, label %64, label %63

63:                                               ; preds = %._crit_edge
  tail call void (ptr, i32, ptr, ...) @av_log(ptr noundef null, i32 noundef 0, ptr noundef nonnull @.str.2, ptr noundef nonnull @.str.6, ptr noundef nonnull @.str.4, i32 noundef 808) #11
  tail call void @abort() #12
  unreachable

64:                                               ; preds = %._crit_edge
  %65 = getelementptr inbounds nuw i8, ptr %6, i64 248
  %66 = load ptr, ptr %65, align 8, !tbaa !78
  store ptr null, ptr %65, align 8, !tbaa !78
  store ptr %66, ptr %61, align 8, !tbaa !76
  %67 = getelementptr inbounds nuw i8, ptr %6, i64 256
  %68 = load ptr, ptr %67, align 8, !tbaa !79
  %69 = getelementptr inbounds nuw i8, ptr %0, i64 544
  %70 = load ptr, ptr %69, align 8, !tbaa !80
  store ptr %70, ptr %67, align 8, !tbaa !79
  store ptr %68, ptr %69, align 8, !tbaa !80
  %71 = getelementptr inbounds nuw i8, ptr %6, i64 264
  %72 = load ptr, ptr %71, align 8, !tbaa !81
  %73 = load ptr, ptr %3, align 8, !tbaa !4
  %74 = getelementptr inbounds nuw i8, ptr %73, i64 112
  %75 = load ptr, ptr %74, align 8, !tbaa !82
  store ptr %75, ptr %71, align 8, !tbaa !81
  store ptr %72, ptr %74, align 8, !tbaa !82
  %76 = getelementptr inbounds nuw i8, ptr %73, i64 32
  tail call void @av_freep(ptr noundef nonnull %76) #11
  ret void
}